target datalayout = "e-m:e-p270:32:32-p271:32:32-p272:64:64-i64:64-i128:128-f80:128-n8:16:32:64-S128"
target triple = "x86_64-pc-linux-gnu"

%struct.PQExpBufferData = type { ptr, i64, i64 }
%struct.DbInfo = type { i32, ptr, [1024 x i8], %struct.RelInfoArr, %struct.LogicalSlotInfoArr }
%struct.RelInfoArr = type { ptr, i32 }
%struct.LogicalSlotInfoArr = type { i32, ptr }
%struct.UpgradeTaskReport = type { ptr, [1024 x i8] }

@.str.5 = private unnamed_addr constant [2 x i8] c"w\00", align 1
@.str.6 = private unnamed_addr constant [29 x i8] c"could not open file \22%s\22: %m\00", align 1
@.str.17 = private unnamed_addr constant [5 x i8] c"name\00", align 1
@.str.18 = private unnamed_addr constant [28 x i8] c"ALTER EXTENSION %s UPDATE;\0A\00", align 1

; Function Attrs: nounwind uwtable
define internal void @process_extension_updates(ptr noundef %0, ptr noundef %1, ptr noundef %2) #0 {
  %4 = alloca ptr, align 8
  %5 = alloca ptr, align 8
  %6 = alloca ptr, align 8
  %7 = alloca i32, align 4
  %8 = alloca i32, align 4
  %9 = alloca ptr, align 8
  %10 = alloca %struct.PQExpBufferData, align 8
  %11 = alloca i32, align 4
  %12 = alloca i32, align 4
  store ptr %0, ptr %4, align 8
  store ptr %1, ptr %5, align 8
  store ptr %2, ptr %6, align 8
  call void @llvm.lifetime.start.p0(i64 4, ptr %7) #5
  %13 = load ptr, ptr %5, align 8
  %14 = call i32 @PQntuples(ptr noundef %13)
  store i32 %14, ptr %7, align 4
  call void @llvm.lifetime.start.p0(i64 4, ptr %8) #5
  %15 = load ptr, ptr %5, align 8
  %16 = call i32 @PQfnumber(ptr noundef %15, ptr noundef @.str.17)
  store i32 %16, ptr %8, align 4
  call void @llvm.lifetime.start.p0(i64 8, ptr %9) #5
  %17 = load ptr, ptr %6, align 8
  store ptr %17, ptr %9, align 8
  call void @llvm.lifetime.start.p0(i64 24, ptr %10) #5
  br label %18

18:                                               ; preds = %3
  br label %19

19:                                               ; preds = %18
  br label %20

20:                                               ; preds = %19
  %21 = load i32, ptr %7, align 4
  %22 = icmp eq i32 %21, 0
  br i1 %22, label %23, label %24

23:                                               ; preds = %20
  store i32 1, ptr %11, align 4
  br label %70

24:                                               ; preds = %20
  %25 = load ptr, ptr %9, align 8
  %26 = getelementptr inbounds nuw %struct.UpgradeTaskReport, ptr %25, i32 0, i32 0
  %27 = load ptr, ptr %26, align 8
  %28 = icmp eq ptr %27, null
  br i1 %28, label %29, label %41

29:                                               ; preds = %24
  %30 = load ptr, ptr %9, align 8
  %31 = getelementptr inbounds nuw %struct.UpgradeTaskReport, ptr %30, i32 0, i32 1
  %32 = getelementptr inbounds [1024 x i8], ptr %31, i64 0, i64 0
  %33 = call noalias ptr @fopen(ptr noundef %32, ptr noundef @.str.5)
  %34 = load ptr, ptr %9, align 8
  %35 = getelementptr inbounds nuw %struct.UpgradeTaskReport, ptr %34, i32 0, i32 0
  store ptr %33, ptr %35, align 8
  %36 = icmp eq ptr %33, null
  br i1 %36, label %37, label %41

37:                                               ; preds = %29
  %38 = load ptr, ptr %9, align 8
  %39 = getelementptr inbounds nuw %struct.UpgradeTaskReport, ptr %38, i32 0, i32 1
  %40 = getelementptr inbounds [1024 x i8], ptr %39, i64 0, i64 0
  call void (ptr, ...) @pg_fatal(ptr noundef @.str.6, ptr noundef %40) #6
  unreachable

41:                                               ; preds = %29, %24
  call void @initPQExpBuffer(ptr noundef %10)
  %42 = load ptr, ptr %4, align 8
  %43 = getelementptr inbounds nuw %struct.DbInfo, ptr %42, i32 0, i32 1
  %44 = load ptr, ptr %43, align 8
  call void @appendPsqlMetaConnect(ptr noundef %10, ptr noundef %44)
  %45 = getelementptr inbounds nuw %struct.PQExpBufferData, ptr %10, i32 0, i32 0
  %46 = load ptr, ptr %45, align 8
  %47 = load ptr, ptr %9, align 8
  %48 = getelementptr inbounds nuw %struct.UpgradeTaskReport, ptr %47, i32 0, i32 0
  %49 = load ptr, ptr %48, align 8
  %50 = call i32 @fputs(ptr noundef %46, ptr noundef %49)
  call void @termPQExpBuffer(ptr noundef %10)
  call void @llvm.lifetime.start.p0(i64 4, ptr %12) #5
  store i32 0, ptr %12, align 4
  br label %51

51:                                               ; preds = %66, %41
  %52 = load i32, ptr %12, align 4
  %53 = load i32, ptr %7, align 4
  %54 = icmp slt i32 %52, %53
  br i1 %54, label %56, label %55

55:                                               ; preds = %51
  store i32 4, ptr %11, align 4
  call void @llvm.lifetime.end.p0(i64 4, ptr %12) #5
  br label %69

56:                                               ; preds = %51
  %57 = load ptr, ptr %9, align 8
  %58 = getelementptr inbounds nuw %struct.UpgradeTaskReport, ptr %57, i32 0, i32 0
  %59 = load ptr, ptr %58, align 8
  %60 = load ptr, ptr %5, align 8
  %61 = load i32, ptr %12, align 4
  %62 = load i32, ptr %8, align 4
  %63 = call ptr @PQgetvalue(ptr noundef %60, i32 noundef %61, i32 noundef %62)
  %64 = call ptr @quote_identifier(ptr noundef %63)
  %65 = call i32 (ptr, ptr, ...) @pg_fprintf(ptr noundef %59, ptr noundef @.str.18, ptr noundef %64)
  br label %66

66:                                               ; preds = %56
  %67 = load i32, ptr %12, align 4
  %68 = add i32 %67, 1
  store i32 %68, ptr %12, align 4
  br label %51, !llvm.loop !9

69:                                               ; preds = %55
  store i32 0, ptr %11, align 4
  br label %70

70:                                               ; preds = %69, %23
  call void @llvm.lifetime.end.p0(i64 24, ptr %10) #5
  call void @llvm.lifetime.end.p0(i64 8, ptr %9) #5
  call void @llvm.lifetime.end.p0(i64 4, ptr %8) #5
  call void @llvm.lifetime.end.p0(i64 4, ptr %7) #5
  %71 = load i32, ptr %11, align 4
  switch i32 %71, label %73 [
    i32 0, label %72
    i32 1, label %72
  ]

72:                                               ; preds = %70, %70
  ret void

73:                                               ; preds = %70
  unreachable
}