; Function Attrs: nounwind uwtable
define internal void @process_extension_updates(ptr noundef readonly captures(none) %0, ptr noundef %1, ptr noundef %2) #1 {
  %4 = alloca %struct.PQExpBufferData, align 8
  %5 = tail call i32 @PQntuples(ptr noundef %1) #7
  %6 = tail call i32 @PQfnumber(ptr noundef %1, ptr noundef nonnull @.str.17) #7
  call void @llvm.lifetime.start.p0(i64 24, ptr nonnull %4) #7
  %7 = icmp eq i32 %5, 0
  br i1 %7, label %.loopexit, label %8

8:                                                ; preds = %3
  %9 = load ptr, ptr %2, align 8
  %10 = icmp eq ptr %9, null
  br i1 %10, label %11, label %16

11:                                               ; preds = %8
  %12 = getelementptr inbounds nuw i8, ptr %2, i64 8
  %13 = tail call noalias ptr @fopen(ptr noundef nonnull %12, ptr noundef nonnull @.str.5)
  store ptr %13, ptr %2, align 8
  %14 = icmp eq ptr %13, null
  br i1 %14, label %15, label %16

15:                                               ; preds = %11
  tail call void (ptr, ...) @pg_fatal(ptr noundef nonnull @.str.6, ptr noundef nonnull %12) #8
  unreachable

16:                                               ; preds = %11, %8
  call void @initPQExpBuffer(ptr noundef nonnull %4) #7
  %17 = getelementptr inbounds nuw i8, ptr %0, i64 8
  %18 = load ptr, ptr %17, align 8
  call void @appendPsqlMetaConnect(ptr noundef nonnull %4, ptr noundef %18) #7
  %19 = load ptr, ptr %4, align 8
  %20 = load ptr, ptr %2, align 8
  %21 = call i32 @fputs(ptr noundef %19, ptr noundef %20)
  call void @termPQExpBuffer(ptr noundef nonnull %4) #7
  %22 = icmp sgt i32 %5, 0
  br i1 %22, label %.lr.ph, label %.loopexit

.lr.ph:                                           ; preds = %16, %.lr.ph
  %.017 = phi i32 [ %27, %.lr.ph ], [ 0, %16 ]
  %23 = load ptr, ptr %2, align 8
  %24 = call ptr @PQgetvalue(ptr noundef %1, i32 noundef %.017, i32 noundef %6) #7
  %25 = call ptr @quote_identifier(ptr noundef %24) #7
  %26 = call i32 (ptr, ptr, ...) @pg_fprintf(ptr noundef %23, ptr noundef nonnull @.str.18, ptr noundef %25) #7
  %27 = add nuw nsw i32 %.017, 1
  %exitcond.not = icmp eq i32 %27, %5
  br i1 %exitcond.not, label %.loopexit, label %.lr.ph, !llvm.loop !7

.loopexit:                                        ; preds = %.lr.ph, %16, %3
  call void @llvm.lifetime.end.p0(i64 24, ptr nonnull %4) #7
  ret void
}